target datalayout = "e-m:e-p270:32:32-p271:32:32-p272:64:64-i64:64-i128:128-f80:128-n8:16:32:64-S128"
target triple = "x86_64-unknown-linux-gnu"

%"class.OpenColorIO_v2_4dev::XmlFormatter" = type <{ ptr, i32, [4 x i8] }>
%"class.OpenColorIO_v2_4dev::XmlScopeIndent" = type { ptr }

; Function Attrs: mustprogress nounwind uwtable
define hidden void @_ZN19OpenColorIO_v2_4dev12XmlFormatter15decrementIndentEv(ptr noundef nonnull align 8 dereferenceable(16) %this) #0 align 2 {
entry:
  %this.addr = alloca ptr, align 8
  store ptr %this, ptr %this.addr, align 8
  %this1 = load ptr, ptr %this.addr, align 8
  %m_indentLevel = getelementptr inbounds %"class.OpenColorIO_v2_4dev::XmlFormatter", ptr %this1, i32 0, i32 1
  %0 = load i32, ptr %m_indentLevel, align 8
  %dec = add nsw i32 %0, -1
  store i32 %dec, ptr %m_indentLevel, align 8
  ret void
}

; Function Attrs: mustprogress nounwind uwtable
define hidden void @_ZN19OpenColorIO_v2_4dev14XmlScopeIndentD2Ev(ptr noundef nonnull align 8 dereferenceable(8) %this) unnamed_addr #0 align 2 {
entry:
  %this.addr = alloca ptr, align 8
  store ptr %this, ptr %this.addr, align 8
  %this1 = load ptr, ptr %this.addr, align 8
  %m_formatter = getelementptr inbounds %"class.OpenColorIO_v2_4dev::XmlScopeIndent", ptr %this1, i32 0, i32 0
  %0 = load ptr, ptr %m_formatter, align 8
  call void @_ZN19OpenColorIO_v2_4dev12XmlFormatter15decrementIndentEv(ptr noundef nonnull align 8 dereferenceable(16) %0)
  ret void
}