; Function Attrs: mustprogress nofree norecurse nosync nounwind willreturn memory(readwrite, inaccessiblemem: none) uwtable
define hidden void @_ZN19OpenColorIO_v2_4dev14XmlScopeIndentD2Ev(ptr nocapture noundef nonnull readonly align 8 dereferenceable(8) %this) unnamed_addr #8 align 2 {
entry:
  %0 = load ptr, ptr %this, align 8
  %m_indentLevel.i = getelementptr inbounds i8, ptr %0, i64 8
  %1 = load i32, ptr %m_indentLevel.i, align 8
  %dec.i = add nsw i32 %1, -1
  store i32 %dec.i, ptr %m_indentLevel.i, align 8
  ret void
}